; Function Attrs: nounwind uwtable
define void @Wlc_NtkMarkCone(ptr noundef readonly captures(none) %0, i32 noundef %1, i32 noundef %2, i32 noundef %3, i32 noundef %4) local_unnamed_addr #3 {
  %6 = getelementptr i8, ptr %0, i64 648
  %.val56.i = load i32, ptr %6, align 8
  %7 = icmp sgt i32 %.val56.i, 1
  br i1 %7, label %.lr.ph.i, label %Wlc_NtkCleanMarks.exit

.lr.ph.i:                                         ; preds = %5
  %8 = getelementptr i8, ptr %0, i64 640
  br label %9

9:                                                ; preds = %9, %.lr.ph.i
  %indvars.iv.i = phi i64 [ 1, %.lr.ph.i ], [ %indvars.iv.next.i, %9 ]
  %.val.i = load ptr, ptr %8, align 8
  %10 = getelementptr inbounds nuw %struct.Wlc_Obj_t_, ptr %.val.i, i64 %indvars.iv.i
  %11 = load i16, ptr %10, align 8
  %12 = and i16 %11, -129
  store i16 %12, ptr %10, align 8
  %indvars.iv.next.i = add nuw nsw i64 %indvars.iv.i, 1
  %.val5.i = load i32, ptr %6, align 8
  %13 = sext i32 %.val5.i to i64
  %14 = icmp slt i64 %indvars.iv.next.i, %13
  br i1 %14, label %9, label %Wlc_NtkCleanMarks.exit, !llvm.loop !26

Wlc_NtkCleanMarks.exit:                           ; preds = %9, %5
  %.not = icmp eq i32 %4, 0
  br i1 %.not, label %.critedge, label %.preheader54

.preheader54:                                     ; preds = %Wlc_NtkCleanMarks.exit
  %15 = getelementptr i8, ptr %0, i64 20
  %.val4455 = load i32, ptr %15, align 4
  %16 = icmp sgt i32 %.val4455, 0
  br i1 %16, label %.lr.ph, label %.critedge

.lr.ph:                                           ; preds = %.preheader54
  %17 = getelementptr i8, ptr %0, i64 24
  %18 = getelementptr i8, ptr %0, i64 640
  br label %19

19:                                               ; preds = %.lr.ph, %19
  %indvars.iv = phi i64 [ 0, %.lr.ph ], [ %indvars.iv.next, %19 ]
  %.val47 = load ptr, ptr %17, align 8
  %.val48 = load ptr, ptr %18, align 8
  %20 = getelementptr inbounds nuw i32, ptr %.val47, i64 %indvars.iv
  %21 = load i32, ptr %20, align 4
  %22 = sext i32 %21 to i64
  %23 = getelementptr inbounds %struct.Wlc_Obj_t_, ptr %.val48, i64 %22
  %24 = load i16, ptr %23, align 8
  %25 = or i16 %24, 128
  store i16 %25, ptr %23, align 8
  %indvars.iv.next = add nuw nsw i64 %indvars.iv, 1
  %.val44 = load i32, ptr %15, align 4
  %26 = sext i32 %.val44 to i64
  %27 = icmp slt i64 %indvars.iv.next, %26
  br i1 %27, label %19, label %.critedge, !llvm.loop !27

.critedge:                                        ; preds = %19, %.preheader54, %Wlc_NtkCleanMarks.exit
  %28 = tail call noalias dereferenceable_or_null(16) ptr @malloc(i64 noundef 16) #26
  %29 = getelementptr inbounds nuw i8, ptr %28, i64 4
  store i32 0, ptr %29, align 4
  store i32 100, ptr %28, align 8
  %30 = tail call noalias dereferenceable_or_null(400) ptr @malloc(i64 noundef 400) #26
  %31 = getelementptr inbounds nuw i8, ptr %28, i64 8
  store ptr %30, ptr %31, align 8
  %32 = getelementptr i8, ptr %0, i64 68
  %.val4957 = load i32, ptr %32, align 4
  %33 = icmp sgt i32 %.val4957, 0
  br i1 %33, label %.lr.ph60, label %.critedge2

.lr.ph60:                                         ; preds = %.critedge
  %34 = getelementptr i8, ptr %0, i64 72
  %35 = getelementptr i8, ptr %0, i64 640
  %36 = icmp eq i32 %1, -1
  br i1 %36, label %.lr.ph60.split.us, label %.lr.ph60.split.preheader

.lr.ph60.split.preheader:                         ; preds = %.lr.ph60
  %37 = add nsw i32 %2, %1
  %38 = sext i32 %37 to i64
  %39 = sext i32 %1 to i64
  br label %.lr.ph60.split

.lr.ph60.split.us:                                ; preds = %.lr.ph60, %.lr.ph60.split.us
  %indvars.iv69 = phi i64 [ %indvars.iv.next70, %.lr.ph60.split.us ], [ 0, %.lr.ph60 ]
  %.val50.us = load ptr, ptr %34, align 8
  %.val51.us = load ptr, ptr %35, align 8
  %40 = getelementptr inbounds nuw i32, ptr %.val50.us, i64 %indvars.iv69
  %41 = load i32, ptr %40, align 4
  %42 = sext i32 %41 to i64
  %43 = getelementptr inbounds %struct.Wlc_Obj_t_, ptr %.val51.us, i64 %42
  tail call void @Wlc_NtkMarkCone_rec(ptr noundef nonnull %0, ptr noundef %43, ptr noundef nonnull %28)
  %indvars.iv.next70 = add nuw nsw i64 %indvars.iv69, 1
  %.val49.us = load i32, ptr %32, align 4
  %44 = sext i32 %.val49.us to i64
  %45 = icmp slt i64 %indvars.iv.next70, %44
  br i1 %45, label %.lr.ph60.split.us, label %.critedge2, !llvm.loop !28

.lr.ph60.split:                                   ; preds = %.lr.ph60.split.preheader, %52
  %.val4975 = phi i32 [ %.val4957, %.lr.ph60.split.preheader ], [ %.val49, %52 ]
  %indvars.iv66 = phi i64 [ 0, %.lr.ph60.split.preheader ], [ %indvars.iv.next67, %52 ]
  %.not41 = icmp sge i64 %indvars.iv66, %39
  %46 = icmp slt i64 %indvars.iv66, %38
  %or.cond = select i1 %.not41, i1 %46, i1 false
  br i1 %or.cond, label %47, label %52

47:                                               ; preds = %.lr.ph60.split
  %.val51 = load ptr, ptr %35, align 8
  %.val50 = load ptr, ptr %34, align 8
  %48 = getelementptr inbounds nuw i32, ptr %.val50, i64 %indvars.iv66
  %49 = load i32, ptr %48, align 4
  %50 = sext i32 %49 to i64
  %51 = getelementptr inbounds %struct.Wlc_Obj_t_, ptr %.val51, i64 %50
  tail call void @Wlc_NtkMarkCone_rec(ptr noundef nonnull %0, ptr noundef %51, ptr noundef nonnull %28)
  %.val49.pre = load i32, ptr %32, align 4
  br label %52

52:                                               ; preds = %.lr.ph60.split, %47
  %.val49 = phi i32 [ %.val4975, %.lr.ph60.split ], [ %.val49.pre, %47 ]
  %indvars.iv.next67 = add nuw nsw i64 %indvars.iv66, 1
  %53 = sext i32 %.val49 to i64
  %54 = icmp slt i64 %indvars.iv.next67, %53
  br i1 %54, label %.lr.ph60.split, label %.critedge2, !llvm.loop !28

.critedge2:                                       ; preds = %52, %.lr.ph60.split.us, %.critedge
  %.not40 = icmp eq i32 %3, 0
  br i1 %.not40, label %.critedge4, label %.preheader

.preheader:                                       ; preds = %.critedge2
  %.val61 = load i32, ptr %29, align 4
  %55 = icmp sgt i32 %.val61, 0
  br i1 %55, label %.lr.ph63, label %.critedge4

.lr.ph63:                                         ; preds = %.preheader
  %56 = getelementptr i8, ptr %0, i64 36
  %57 = getelementptr i8, ptr %0, i64 20
  %58 = getelementptr i8, ptr %0, i64 72
  %59 = getelementptr i8, ptr %0, i64 640
  br label %60

60:                                               ; preds = %.lr.ph63, %60
  %indvars.iv72 = phi i64 [ 0, %.lr.ph63 ], [ %indvars.iv.next73, %60 ]
  %.val45 = load ptr, ptr %31, align 8
  %61 = getelementptr inbounds nuw i32, ptr %.val45, i64 %indvars.iv72
  %62 = load i32, ptr %61, align 4
  %.val46 = load i32, ptr %56, align 4
  %63 = add nsw i32 %.val46, %62
  %.val43 = load i32, ptr %57, align 4
  %64 = sub i32 %63, %.val43
  %.val52 = load ptr, ptr %58, align 8
  %.val53 = load ptr, ptr %59, align 8
  %65 = sext i32 %64 to i64
  %66 = getelementptr inbounds i32, ptr %.val52, i64 %65
  %67 = load i32, ptr %66, align 4
  %68 = sext i32 %67 to i64
  %69 = getelementptr inbounds %struct.Wlc_Obj_t_, ptr %.val53, i64 %68
  tail call void @Wlc_NtkMarkCone_rec(ptr noundef nonnull %0, ptr noundef %69, ptr noundef nonnull %28)
  %indvars.iv.next73 = add nuw nsw i64 %indvars.iv72, 1
  %.val = load i32, ptr %29, align 4
  %70 = sext i32 %.val to i64
  %71 = icmp slt i64 %indvars.iv.next73, %70
  br i1 %71, label %60, label %.critedge4, !llvm.loop !29

.critedge4:                                       ; preds = %60, %.preheader, %.critedge2
  %72 = load ptr, ptr %31, align 8
  %.not.i = icmp eq ptr %72, null
  br i1 %.not.i, label %Vec_IntFree.exit, label %73

73:                                               ; preds = %.critedge4
  tail call void @free(ptr noundef nonnull %72) #25
  br label %Vec_IntFree.exit

Vec_IntFree.exit:                                 ; preds = %.critedge4, %73
  tail call void @free(ptr noundef nonnull %28) #25
  ret void
}